; ModuleID = '40/1168.c'
source_filename = "40/1168.c"
target datalayout = "e-m:e-p270:32:32-p271:32:32-p272:64:64-i64:64-f80:128-n8:16:32:64-S128"
target triple = "x86_64-pc-linux-gnu"

@.str = private unnamed_addr constant [16 x i8] c"%lf%lf%lf%lf%lf\00", align 1
@.str.1 = private unnamed_addr constant [15 x i8] c"Invalid input\0A\00", align 1
@.str.2 = private unnamed_addr constant [6 x i8] c"%.4lf\00", align 1

; Function Attrs: noinline nounwind uwtable
define dso_local void @main() #0 {
  %1 = alloca double, align 8
  %2 = alloca double, align 8
  %3 = alloca double, align 8
  %4 = alloca double, align 8
  %5 = alloca double, align 8
  %6 = call i32 (i8*, ...) @__isoc99_scanf(i8* getelementptr inbounds ([16 x i8], [16 x i8]* @.str, i64 0, i64 0), double* %1, double* %2, double* %3, double* %4, double* %5)
  %7 = load double, double* %1, align 8
  %8 = load double, double* %2, align 8
  %9 = load double, double* %3, align 8
  %10 = load double, double* %4, align 8
  %11 = load double, double* %5, align 8
  call void @square(double %7, double %8, double %9, double %10, double %11)
  ret void
}

declare dso_local i32 @__isoc99_scanf(i8*, ...) #1

; Function Attrs: noinline nounwind uwtable
define dso_local void @square(double %0, double %1, double %2, double %3, double %4) #0 {
  %6 = alloca double, align 8
  %7 = alloca double, align 8
  %8 = alloca double, align 8
  %9 = alloca double, align 8
  %10 = alloca double, align 8
  %11 = alloca double, align 8
  %12 = alloca double, align 8
  %13 = alloca double, align 8
  %14 = alloca double, align 8
  store double %0, double* %6, align 8
  store double %1, double* %7, align 8
  store double %2, double* %8, align 8
  store double %3, double* %9, align 8
  store double %4, double* %10, align 8
  %15 = load double, double* %10, align 8
  %16 = fdiv double %15, 2.000000e+00
  store double %16, double* %14, align 8
  %17 = load double, double* %6, align 8
  %18 = load double, double* %7, align 8
  %19 = fadd double %17, %18
  %20 = load double, double* %8, align 8
  %21 = fadd double %19, %20
  %22 = load double, double* %9, align 8
  %23 = fadd double %21, %22
  %24 = fdiv double %23, 2.000000e+00
  store double %24, double* %11, align 8
  %25 = load double, double* %14, align 8
  %26 = fmul double 1.000000e+02, %25
  %27 = fdiv double %26, 1.800000e+02
  store double %27, double* %12, align 8
  %28 = load double, double* %11, align 8
  %29 = load double, double* %6, align 8
  %30 = fsub double %28, %29
  %31 = load double, double* %11, align 8
  %32 = load double, double* %7, align 8
  %33 = fsub double %31, %32
  %34 = fmul double %30, %33
  %35 = load double, double* %11, align 8
  %36 = load double, double* %8, align 8
  %37 = fsub double %35, %36
  %38 = fmul double %34, %37
  %39 = load double, double* %11, align 8
  %40 = load double, double* %9, align 8
  %41 = fsub double %39, %40
  %42 = fmul double %38, %41
  %43 = load double, double* %6, align 8
  %44 = load double, double* %7, align 8
  %45 = fmul double %43, %44
  %46 = load double, double* %8, align 8
  %47 = fmul double %45, %46
  %48 = load double, double* %9, align 8
  %49 = fmul double %47, %48
  %50 = load double, double* %12, align 8
  %51 = call double @cos(double %50) #3
  %52 = fmul double %49, %51
  %53 = load double, double* %12, align 8
  %54 = call double @cos(double %53) #3
  %55 = fmul double %52, %54
  %56 = fsub double %42, %55
  %57 = fcmp olt double %56, 0.000000e+00
  br i1 %57, label %58, label %60

58:                                               ; preds = %5
  %59 = call i32 (i8*, ...) @printf(i8* getelementptr inbounds ([15 x i8], [15 x i8]* @.str.1, i64 0, i64 0))
  br label %93

60:                                               ; preds = %5
  %61 = load double, double* %11, align 8
  %62 = load double, double* %6, align 8
  %63 = fsub double %61, %62
  %64 = load double, double* %11, align 8
  %65 = load double, double* %7, align 8
  %66 = fsub double %64, %65
  %67 = fmul double %63, %66
  %68 = load double, double* %11, align 8
  %69 = load double, double* %8, align 8
  %70 = fsub double %68, %69
  %71 = fmul double %67, %70
  %72 = load double, double* %11, align 8
  %73 = load double, double* %9, align 8
  %74 = fsub double %72, %73
  %75 = fmul double %71, %74
  %76 = load double, double* %6, align 8
  %77 = load double, double* %7, align 8
  %78 = fmul double %76, %77
  %79 = load double, double* %8, align 8
  %80 = fmul double %78, %79
  %81 = load double, double* %9, align 8
  %82 = fmul double %80, %81
  %83 = load double, double* %12, align 8
  %84 = call double @cos(double %83) #3
  %85 = fmul double %82, %84
  %86 = load double, double* %12, align 8
  %87 = call double @cos(double %86) #3
  %88 = fmul double %85, %87
  %89 = fsub double %75, %88
  %90 = call double @sqrt(double %89) #3
  store double %90, double* %13, align 8
  %91 = load double, double* %13, align 8
  %92 = call i32 (i8*, ...) @printf(i8* getelementptr inbounds ([6 x i8], [6 x i8]* @.str.2, i64 0, i64 0), double %91)
  br label %93

93:                                               ; preds = %60, %58
  ret void
}

; Function Attrs: nounwind
declare dso_local double @cos(double) #2

declare dso_local i32 @printf(i8*, ...) #1

; Function Attrs: nounwind
declare dso_local double @sqrt(double) #2


!llvm.module.flags = !{!0}
!llvm.ident = !{!1}

!0 = !{i32 1, !"wchar_size", i32 4}
!1 = !{!"clang version 10.0.0-4ubuntu1 "}
